; Function Attrs: nounwind uwtable
define dso_local range(i64 -2147483648, 2147483648) i64 @to_regtypemod(ptr noundef captures(none) %0) local_unnamed_addr #0 {
  %2 = alloca i32, align 4
  %3 = alloca i32, align 4
  %4 = alloca %struct.ErrorSaveContext, align 8
  %5 = getelementptr inbounds nuw i8, ptr %0, i64 32
  %6 = load i64, ptr %5, align 8
  %7 = inttoptr i64 %6 to ptr
  %8 = tail call ptr @pg_detoast_datum_packed(ptr noundef %7) #9
  %9 = tail call ptr @text_to_cstring(ptr noundef %8) #9
  call void @llvm.lifetime.start.p0(i64 4, ptr nonnull %2) #9
  call void @llvm.lifetime.start.p0(i64 4, ptr nonnull %3) #9
  call void @llvm.lifetime.start.p0(i64 16, ptr nonnull %4) #9
  call void @llvm.memcpy.p0.p0.i64(ptr noundef nonnull align 8 dereferenceable(16) %4, ptr noundef nonnull align 8 dereferenceable(16) @__const.to_regnamespace.escontext, i64 16, i1 false)
  %10 = call zeroext i1 @parseTypeString(ptr noundef %9, ptr noundef nonnull %2, ptr noundef nonnull %3, ptr noundef nonnull %4) #9
  br i1 %10, label %13, label %11

11:                                               ; preds = %1
  %12 = getelementptr inbounds nuw i8, ptr %0, i64 28
  store i8 1, ptr %12, align 4
  br label %16

13:                                               ; preds = %1
  %14 = load i32, ptr %3, align 4
  %15 = sext i32 %14 to i64
  br label %16

16:                                               ; preds = %13, %11
  %.0 = phi i64 [ %15, %13 ], [ 0, %11 ]
  call void @llvm.lifetime.end.p0(i64 16, ptr nonnull %4) #9
  call void @llvm.lifetime.end.p0(i64 4, ptr nonnull %3) #9
  call void @llvm.lifetime.end.p0(i64 4, ptr nonnull %2) #9
  ret i64 %.0
}